
build/app.elf:     file format elf64-littleriscv


Disassembly of section .text:

0000000040000000 <main>:
        *dst++ = 0;
    }
} */

void main(void)
{
    40000000:	1101                	addi	sp,sp,-32
    40000002:	ec22                	sd	s0,24(sp)
    40000004:	1000                	addi	s0,sp,32
    int a = 1;
    40000006:	4785                	li	a5,1
    40000008:	fef42623          	sw	a5,-20(s0)
    int b = 2;
    4000000c:	4789                	li	a5,2
    4000000e:	fef42423          	sw	a5,-24(s0)
    int c = 0;
    40000012:	fe042223          	sw	zero,-28(s0)
    c = a + b;
    40000016:	fec42703          	lw	a4,-20(s0)
    4000001a:	fe842783          	lw	a5,-24(s0)
    4000001e:	9fb9                	addw	a5,a5,a4
    40000020:	fef42223          	sw	a5,-28(s0)
    40000024:	0001                	nop
    40000026:	6462                	ld	s0,24(sp)
    40000028:	6105                	addi	sp,sp,32
    4000002a:	8082                	ret

000000004000002c <_start>:
.global _start

_start:
	/*disable interrupt*/
	csrw mie, zero
    4000002c:	30401073          	csrw	mie,zero
	/*enable theadisaee*/
	li t1, 0x1 << 22
    40000030:	00400337          	lui	t1,0x400
	csrs mxstatus, t1
    40000034:	7c032073          	csrs	mxstatus,t1
	/*invaild ICACHE/DCACHE/BTB/BHT*/
	li t1, 0x30013
    40000038:	00030337          	lui	t1,0x30
    4000003c:	0133031b          	addiw	t1,t1,19
	csrs mcor, t1
    40000040:	7c232073          	csrs	mcor,t1
	j reset
    40000044:	a009                	j	40000046 <reset>

0000000040000046 <reset>:

reset:
	addi sp, sp, -32
    40000046:	1101                	addi	sp,sp,-32
	sd s0, 8(sp)
    40000048:	e422                	sd	s0,8(sp)
	sd s1, 16(sp)
    4000004a:	e826                	sd	s1,16(sp)
	sd ra, 24(sp)
    4000004c:	ec06                	sd	ra,24(sp)
	mv s0, a0
    4000004e:	842a                	mv	s0,a0

	li t0, 0x07090108
    40000050:	070902b7          	lui	t0,0x7090
    40000054:	1082829b          	addiw	t0,t0,264
	sw zero, (t0)
    40000058:	0002a023          	sw	zero,0(t0) # 7090000 <STACK_SIZE+0x708fc00>
	jal main
    4000005c:	fa5ff0ef          	jal	ra,40000000 <main>

	ld ra, 24(sp)
    40000060:	60e2                	ld	ra,24(sp)
	ld s0, 8(sp)
    40000062:	6422                	ld	s0,8(sp)
	ld s1, 16(sp)
    40000064:	64c2                	ld	s1,16(sp)
	addi sp, sp, 32
    40000066:	6105                	addi	sp,sp,32
	ret
    40000068:	8082                	ret
